; Function Attrs: mustprogress nounwind uwtable
define internal void @_ZN12_GLOBAL__N_111ISelUpdaterD0Ev(ptr noundef nonnull align 8 dereferenceable(32) initializes((0, 8)) %0) unnamed_addr #0 align 2 {
  store ptr getelementptr inbounds nuw inrange(-16, 40) (i8, ptr @_ZTVN4llvm12SelectionDAG17DAGUpdateListenerE, i64 16), ptr %0, align 8
  %2 = getelementptr inbounds nuw i8, ptr %0, i64 8
  %3 = load ptr, ptr %2, align 8
  %4 = getelementptr inbounds nuw i8, ptr %0, i64 16
  %5 = load ptr, ptr %4, align 8
  %6 = getelementptr inbounds nuw i8, ptr %5, i64 696
  store ptr %3, ptr %6, align 8
  tail call void @_ZdlPvm(ptr noundef nonnull %0, i64 noundef 32) #32
  ret void
}